target datalayout = "e-m:e-p270:32:32-p271:32:32-p272:64:64-i64:64-i128:128-f80:128-n8:16:32:64-S128"
target triple = "x86_64-pc-linux-gnu"

%struct.InterpFilterParams = type { ptr, i16, i8 }
%struct.ConvolveParams = type { i32, ptr, i32, i32, i32, i32, i32, i32, i32, i32 }

; Function Attrs: nounwind uwtable
define internal zeroext i8 @clip_pixel(i32 noundef %0) #0 {
  %2 = alloca i32, align 4
  store i32 %0, ptr %2, align 4
  %3 = load i32, ptr %2, align 4
  %4 = icmp sgt i32 %3, 255
  br i1 %4, label %5, label %6

5:                                                ; preds = %1
  br label %14

6:                                                ; preds = %1
  %7 = load i32, ptr %2, align 4
  %8 = icmp slt i32 %7, 0
  br i1 %8, label %9, label %10

9:                                                ; preds = %6
  br label %12

10:                                               ; preds = %6
  %11 = load i32, ptr %2, align 4
  br label %12

12:                                               ; preds = %10, %9
  %13 = phi i32 [ 0, %9 ], [ %11, %10 ]
  br label %14

14:                                               ; preds = %12, %5
  %15 = phi i32 [ 255, %5 ], [ %13, %12 ]
  %16 = trunc i32 %15 to i8
  ret i8 %16
}

; Function Attrs: nounwind uwtable
define internal ptr @av1_get_interp_filter_subpel_kernel(ptr noundef %0, i32 noundef %1) #0 {
  %3 = alloca ptr, align 8
  %4 = alloca i32, align 4
  store ptr %0, ptr %3, align 8
  store i32 %1, ptr %4, align 4
  %5 = load ptr, ptr %3, align 8
  %6 = getelementptr inbounds nuw %struct.InterpFilterParams, ptr %5, i32 0, i32 0
  %7 = load ptr, ptr %6, align 8
  %8 = load ptr, ptr %3, align 8
  %9 = getelementptr inbounds nuw %struct.InterpFilterParams, ptr %8, i32 0, i32 1
  %10 = load i16, ptr %9, align 8
  %11 = zext i16 %10 to i32
  %12 = load i32, ptr %4, align 4
  %13 = mul nsw i32 %11, %12
  %14 = sext i32 %13 to i64
  %15 = getelementptr inbounds i16, ptr %7, i64 %14
  ret ptr %15
}

; Function Attrs: nounwind uwtable
define hidden void @av1_convolve_x_sr_c(ptr noundef %0, i32 noundef %1, ptr noundef %2, i32 noundef %3, i32 noundef %4, i32 noundef %5, ptr noundef %6, i32 noundef %7, ptr noundef %8) #0 {
  %10 = alloca ptr, align 8
  %11 = alloca i32, align 4
  %12 = alloca ptr, align 8
  %13 = alloca i32, align 4
  %14 = alloca i32, align 4
  %15 = alloca i32, align 4
  %16 = alloca ptr, align 8
  %17 = alloca i32, align 4
  %18 = alloca ptr, align 8
  %19 = alloca i32, align 4
  %20 = alloca i32, align 4
  %21 = alloca ptr, align 8
  %22 = alloca i32, align 4
  %23 = alloca i32, align 4
  %24 = alloca i32, align 4
  %25 = alloca i32, align 4
  store ptr %0, ptr %10, align 8
  store i32 %1, ptr %11, align 4
  store ptr %2, ptr %12, align 8
  store i32 %3, ptr %13, align 4
  store i32 %4, ptr %14, align 4
  store i32 %5, ptr %15, align 4
  store ptr %6, ptr %16, align 8
  store i32 %7, ptr %17, align 4
  store ptr %8, ptr %18, align 8
  %26 = load ptr, ptr %16, align 8
  %27 = getelementptr inbounds nuw %struct.InterpFilterParams, ptr %26, i32 0, i32 1
  %28 = load i16, ptr %27, align 8
  %29 = zext i16 %28 to i32
  %30 = sdiv i32 %29, 2
  %31 = sub nsw i32 %30, 1
  store i32 %31, ptr %19, align 4
  %32 = load ptr, ptr %18, align 8
  %33 = getelementptr inbounds nuw %struct.ConvolveParams, ptr %32, i32 0, i32 3
  %34 = load i32, ptr %33, align 4
  %35 = sub nsw i32 7, %34
  store i32 %35, ptr %20, align 4
  %36 = load ptr, ptr %16, align 8
  %37 = load i32, ptr %17, align 4
  %38 = and i32 %37, 15
  %39 = call ptr @av1_get_interp_filter_subpel_kernel(ptr noundef %36, i32 noundef %38)
  store ptr %39, ptr %21, align 8
  store i32 0, ptr %22, align 4
  br label %40

40:                                               ; preds = %116, %9
  %41 = load i32, ptr %22, align 4
  %42 = load i32, ptr %15, align 4
  %43 = icmp slt i32 %41, %42
  br i1 %43, label %44, label %119

44:                                               ; preds = %40
  store i32 0, ptr %23, align 4
  br label %45

45:                                               ; preds = %112, %44
  %46 = load i32, ptr %23, align 4
  %47 = load i32, ptr %14, align 4
  %48 = icmp slt i32 %46, %47
  br i1 %48, label %49, label %115

49:                                               ; preds = %45
  store i32 0, ptr %24, align 4
  store i32 0, ptr %25, align 4
  br label %50

50:                                               ; preds = %81, %49
  %51 = load i32, ptr %25, align 4
  %52 = load ptr, ptr %16, align 8
  %53 = getelementptr inbounds nuw %struct.InterpFilterParams, ptr %52, i32 0, i32 1
  %54 = load i16, ptr %53, align 8
  %55 = zext i16 %54 to i32
  %56 = icmp slt i32 %51, %55
  br i1 %56, label %57, label %84

57:                                               ; preds = %50
  %58 = load ptr, ptr %21, align 8
  %59 = load i32, ptr %25, align 4
  %60 = sext i32 %59 to i64
  %61 = getelementptr inbounds i16, ptr %58, i64 %60
  %62 = load i16, ptr %61, align 2
  %63 = sext i16 %62 to i32
  %64 = load ptr, ptr %10, align 8
  %65 = load i32, ptr %22, align 4
  %66 = load i32, ptr %11, align 4
  %67 = mul nsw i32 %65, %66
  %68 = load i32, ptr %23, align 4
  %69 = add nsw i32 %67, %68
  %70 = load i32, ptr %19, align 4
  %71 = sub nsw i32 %69, %70
  %72 = load i32, ptr %25, align 4
  %73 = add nsw i32 %71, %72
  %74 = sext i32 %73 to i64
  %75 = getelementptr inbounds i8, ptr %64, i64 %74
  %76 = load i8, ptr %75, align 1
  %77 = zext i8 %76 to i32
  %78 = mul nsw i32 %63, %77
  %79 = load i32, ptr %24, align 4
  %80 = add nsw i32 %79, %78
  store i32 %80, ptr %24, align 4
  br label %81

81:                                               ; preds = %57
  %82 = load i32, ptr %25, align 4
  %83 = add nsw i32 %82, 1
  store i32 %83, ptr %25, align 4
  br label %50, !llvm.loop !26

84:                                               ; preds = %50
  %85 = load i32, ptr %24, align 4
  %86 = load ptr, ptr %18, align 8
  %87 = getelementptr inbounds nuw %struct.ConvolveParams, ptr %86, i32 0, i32 3
  %88 = load i32, ptr %87, align 4
  %89 = shl i32 1, %88
  %90 = ashr i32 %89, 1
  %91 = add nsw i32 %85, %90
  %92 = load ptr, ptr %18, align 8
  %93 = getelementptr inbounds nuw %struct.ConvolveParams, ptr %92, i32 0, i32 3
  %94 = load i32, ptr %93, align 4
  %95 = ashr i32 %91, %94
  store i32 %95, ptr %24, align 4
  %96 = load i32, ptr %24, align 4
  %97 = load i32, ptr %20, align 4
  %98 = shl i32 1, %97
  %99 = ashr i32 %98, 1
  %100 = add nsw i32 %96, %99
  %101 = load i32, ptr %20, align 4
  %102 = ashr i32 %100, %101
  %103 = call zeroext i8 @clip_pixel(i32 noundef %102)
  %104 = load ptr, ptr %12, align 8
  %105 = load i32, ptr %22, align 4
  %106 = load i32, ptr %13, align 4
  %107 = mul nsw i32 %105, %106
  %108 = load i32, ptr %23, align 4
  %109 = add nsw i32 %107, %108
  %110 = sext i32 %109 to i64
  %111 = getelementptr inbounds i8, ptr %104, i64 %110
  store i8 %103, ptr %111, align 1
  br label %112

112:                                              ; preds = %84
  %113 = load i32, ptr %23, align 4
  %114 = add nsw i32 %113, 1
  store i32 %114, ptr %23, align 4
  br label %45, !llvm.loop !27

115:                                              ; preds = %45
  br label %116

116:                                              ; preds = %115
  %117 = load i32, ptr %22, align 4
  %118 = add nsw i32 %117, 1
  store i32 %118, ptr %22, align 4
  br label %40, !llvm.loop !28

119:                                              ; preds = %40
  ret void
}