; Function Attrs: nofree norecurse nosync nounwind memory(read, argmem: readwrite, inaccessiblemem: none) uwtable
define hidden void @av1_convolve_x_sr_c(ptr noundef readonly captures(none) %0, i32 noundef %1, ptr noundef writeonly captures(none) %2, i32 noundef %3, i32 noundef %4, i32 noundef %5, ptr noundef readonly captures(none) %6, i32 noundef %7, ptr noundef readonly captures(none) %8) local_unnamed_addr #1 {
  %10 = getelementptr inbounds nuw i8, ptr %6, i64 8
  %11 = load i16, ptr %10, align 8
  %12 = getelementptr inbounds nuw i8, ptr %8, i64 20
  %13 = load i32, ptr %12, align 4
  %14 = sub nsw i32 7, %13
  %15 = and i32 %7, 15
  %.val = load ptr, ptr %6, align 8
  %16 = zext i16 %11 to i32
  %17 = mul nuw nsw i32 %15, %16
  %18 = zext nneg i32 %17 to i64
  %19 = getelementptr inbounds nuw i16, ptr %.val, i64 %18
  %20 = icmp sgt i32 %5, 0
  br i1 %20, label %.preheader36.lr.ph, label %._crit_edge42

.preheader36.lr.ph:                               ; preds = %9
  %21 = lshr i16 %11, 1
  %22 = zext nneg i16 %21 to i32
  %23 = icmp sgt i32 %4, 0
  %24 = shl nuw i32 1, %14
  %25 = ashr i32 %24, 1
  br i1 %23, label %.preheader36.us.preheader, label %._crit_edge42

.preheader36.us.preheader:                        ; preds = %.preheader36.lr.ph
  %26 = sext i32 %3 to i64
  %wide.trip.count53 = zext nneg i32 %5 to i64
  %wide.trip.count48 = zext nneg i32 %4 to i64
  br label %.preheader36.us

.preheader36.us:                                  ; preds = %.preheader36.us.preheader, %._crit_edge40.us
  %indvars.iv50 = phi i64 [ 0, %.preheader36.us.preheader ], [ %indvars.iv.next51, %._crit_edge40.us ]
  %27 = trunc i64 %indvars.iv50 to i32
  %28 = mul i32 %1, %27
  %reass.sub = sub i32 %28, %22
  %29 = add i32 %reass.sub, 1
  %30 = mul nsw i64 %indvars.iv50, %26
  %invariant.gep55 = getelementptr i8, ptr %2, i64 %30
  br label %.preheader.us

._crit_edge.us:                                   ; preds = %41, %.preheader.us
  %.031.lcssa.us = phi i32 [ 0, %.preheader.us ], [ %48, %41 ]
  %31 = load i32, ptr %12, align 4
  %32 = shl nuw i32 1, %31
  %33 = ashr i32 %32, 1
  %34 = add nsw i32 %33, %.031.lcssa.us
  %35 = ashr i32 %34, %31
  %36 = add nsw i32 %35, %25
  %37 = ashr i32 %36, %14
  %38 = tail call i32 @llvm.smax.i32(i32 %37, i32 0)
  %39 = tail call i32 @llvm.umin.i32(i32 %38, i32 255)
  %40 = trunc nuw i32 %39 to i8
  %gep56 = getelementptr i8, ptr %invariant.gep55, i64 %indvars.iv45
  store i8 %40, ptr %gep56, align 1
  %indvars.iv.next46 = add nuw nsw i64 %indvars.iv45, 1
  %exitcond49.not = icmp eq i64 %indvars.iv.next46, %wide.trip.count48
  br i1 %exitcond49.not, label %._crit_edge40.us, label %.preheader.us, !llvm.loop !26

41:                                               ; preds = %.lr.ph.us, %41
  %indvars.iv = phi i64 [ 0, %.lr.ph.us ], [ %indvars.iv.next, %41 ]
  %.03137.us = phi i32 [ 0, %.lr.ph.us ], [ %48, %41 ]
  %42 = getelementptr inbounds nuw i16, ptr %19, i64 %indvars.iv
  %43 = load i16, ptr %42, align 2
  %44 = sext i16 %43 to i32
  %gep = getelementptr i8, ptr %invariant.gep, i64 %indvars.iv
  %45 = load i8, ptr %gep, align 1
  %46 = zext i8 %45 to i32
  %47 = mul nsw i32 %46, %44
  %48 = add nsw i32 %47, %.03137.us
  %indvars.iv.next = add nuw nsw i64 %indvars.iv, 1
  %exitcond.not = icmp eq i64 %indvars.iv.next, %wide.trip.count
  br i1 %exitcond.not, label %._crit_edge.us, label %41, !llvm.loop !27

.preheader.us:                                    ; preds = %.preheader36.us, %._crit_edge.us
  %indvars.iv45 = phi i64 [ 0, %.preheader36.us ], [ %indvars.iv.next46, %._crit_edge.us ]
  %49 = load i16, ptr %10, align 8
  %.not = icmp eq i16 %49, 0
  br i1 %.not, label %._crit_edge.us, label %.lr.ph.us

.lr.ph.us:                                        ; preds = %.preheader.us
  %50 = trunc nuw nsw i64 %indvars.iv45 to i32
  %51 = add i32 %29, %50
  %52 = sext i32 %51 to i64
  %wide.trip.count = zext i16 %49 to i64
  %invariant.gep = getelementptr i8, ptr %0, i64 %52
  br label %41

._crit_edge40.us:                                 ; preds = %._crit_edge.us
  %indvars.iv.next51 = add nuw nsw i64 %indvars.iv50, 1
  %exitcond54.not = icmp eq i64 %indvars.iv.next51, %wide.trip.count53
  br i1 %exitcond54.not, label %._crit_edge42, label %.preheader36.us, !llvm.loop !28

._crit_edge42:                                    ; preds = %._crit_edge40.us, %.preheader36.lr.ph, %9
  ret void
}